target datalayout = "e-m:e-p270:32:32-p271:32:32-p272:64:64-i64:64-i128:128-f80:128-n8:16:32:64-S128"
target triple = "x86_64-pc-linux-gnu"

; Function Attrs: mustprogress nounwind uwtable
define noundef zeroext i1 @_ZN7testing8internal10SkipPrefixEPKcPS2_(ptr noundef %0, ptr noundef %1) #5 {
  %3 = alloca i1, align 1
  %4 = alloca ptr, align 8
  %5 = alloca ptr, align 8
  %6 = alloca i64, align 8
  %7 = alloca i32, align 4
  store ptr %0, ptr %4, align 8, !tbaa !29
  store ptr %1, ptr %5, align 8, !tbaa !187
  call void @llvm.lifetime.start.p0(i64 8, ptr %6) #3
  %8 = load ptr, ptr %4, align 8, !tbaa !29
  %9 = call i64 @strlen(ptr noundef %8) #27
  store i64 %9, ptr %6, align 8, !tbaa !179
  %10 = load ptr, ptr %5, align 8, !tbaa !187
  %11 = load ptr, ptr %10, align 8, !tbaa !29
  %12 = load ptr, ptr %4, align 8, !tbaa !29
  %13 = load i64, ptr %6, align 8, !tbaa !179
  %14 = call i32 @strncmp(ptr noundef %11, ptr noundef %12, i64 noundef %13) #27
  %15 = icmp eq i32 %14, 0
  br i1 %15, label %16, label %21

16:                                               ; preds = %2
  %17 = load i64, ptr %6, align 8, !tbaa !179
  %18 = load ptr, ptr %5, align 8, !tbaa !187
  %19 = load ptr, ptr %18, align 8, !tbaa !29
  %20 = getelementptr inbounds nuw i8, ptr %19, i64 %17
  store ptr %20, ptr %18, align 8, !tbaa !29
  store i1 true, ptr %3, align 1
  store i32 1, ptr %7, align 4
  br label %22

21:                                               ; preds = %2
  store i1 false, ptr %3, align 1
  store i32 1, ptr %7, align 4
  br label %22

22:                                               ; preds = %21, %16
  call void @llvm.lifetime.end.p0(i64 8, ptr %6) #3
  %23 = load i1, ptr %3, align 1
  ret i1 %23
}